; Function Attrs: null_pointer_is_valid sspstrong uwtable
define ptr @tvb_new_chain(ptr noundef captures(address_is_null) %0, ptr noundef %1) local_unnamed_addr #0 {
  %3 = tail call ptr @tvb_new_proxy(ptr noundef %1)
  %.not.i = icmp eq ptr %0, null
  br i1 %.not.i, label %4, label %5

4:                                                ; preds = %2
  tail call void (ptr, ...) @proto_report_dissector_bug(ptr noundef nonnull @.str, ptr noundef nonnull @.str.1, i32 noundef 140, ptr noundef nonnull @.str.3) #18
  unreachable

5:                                                ; preds = %2
  %.not11.i = icmp eq ptr %3, null
  br i1 %.not11.i, label %6, label %.preheader.preheader.i

.preheader.preheader.i:                           ; preds = %5
  %.pre.i = load ptr, ptr %0, align 8
  br label %.preheader.i

6:                                                ; preds = %5
  tail call void (ptr, ...) @proto_report_dissector_bug(ptr noundef nonnull @.str, ptr noundef nonnull @.str.1, i32 noundef 141, ptr noundef nonnull @.str.4) #18
  unreachable

.preheader.i:                                     ; preds = %.preheader.i, %.preheader.preheader.i
  %7 = phi ptr [ %.013.i, %.preheader.i ], [ %.pre.i, %.preheader.preheader.i ]
  %.013.i = phi ptr [ %8, %.preheader.i ], [ %3, %.preheader.preheader.i ]
  %8 = load ptr, ptr %.013.i, align 8
  store ptr %7, ptr %.013.i, align 8
  store ptr %.013.i, ptr %0, align 8
  %.not12.i = icmp eq ptr %8, null
  br i1 %.not12.i, label %tvb_add_to_chain.exit, label %.preheader.i, !llvm.loop !8

tvb_add_to_chain.exit:                            ; preds = %.preheader.i
  ret ptr %3
}